; Function Attrs: nounwind uwtable
define internal i32 @gopher_connecting(ptr noundef %0, ptr noundef %1) #0 {
  %3 = getelementptr inbounds nuw i8, ptr %0, i64 24
  %4 = load ptr, ptr %3, align 8, !tbaa !3
  %5 = tail call i32 @Curl_conn_connect(ptr noundef %0, i32 noundef 0, i1 noundef zeroext true, ptr noundef %1) #5
  %.not = icmp eq i32 %5, 0
  br i1 %.not, label %7, label %6

6:                                                ; preds = %2
  tail call void @Curl_conncontrol(ptr noundef %4, i32 noundef 1) #5
  br label %7

7:                                                ; preds = %6, %2
  store i8 1, ptr %1, align 1, !tbaa !79
  ret i32 %5
}